target datalayout = "e-m:e-p270:32:32-p271:32:32-p272:64:64-i64:64-i128:128-f80:128-n8:16:32:64-S128"
target triple = "x86_64-pc-linux-gnu"

%struct.BuildCtx = type { ptr, i32, ptr, ptr, ptr, ptr, i64, i32, i32, i32, i32, i32, ptr, ptr, ptr, ptr, ptr, ptr, ptr, ptr, ptr, [200 x %struct.BuildReloc] }
%struct.BuildReloc = type { i32, i32, i32 }
%struct.dasm_State = type { i64, ptr, ptr, i64, ptr, i64, ptr, ptr, i64, i32, i32, [1 x %struct.dasm_Section] }
%struct.dasm_Section = type { ptr, ptr, i64, i32, i32, i32 }

; Function Attrs: nounwind uwtable
define dso_local void @dasm_setupglobal(ptr noundef %0, ptr noundef %1, i32 noundef %2) #0 {
  %4 = alloca ptr, align 8
  %5 = alloca ptr, align 8
  %6 = alloca i32, align 4
  %7 = alloca ptr, align 8
  %8 = alloca i64, align 8
  %9 = alloca i64, align 8
  store ptr %0, ptr %4, align 8, !tbaa !4
  store ptr %1, ptr %5, align 8, !tbaa !36
  store i32 %2, ptr %6, align 4, !tbaa !9
  call void @llvm.lifetime.start.p0(i64 8, ptr %7) #12
  %10 = load ptr, ptr %4, align 8, !tbaa !4
  %11 = getelementptr inbounds nuw %struct.BuildCtx, ptr %10, i32 0, i32 0
  %12 = load ptr, ptr %11, align 8, !tbaa !13
  store ptr %12, ptr %7, align 8, !tbaa !23
  %13 = load ptr, ptr %5, align 8, !tbaa !36
  %14 = load ptr, ptr %7, align 8, !tbaa !23
  %15 = getelementptr inbounds nuw %struct.dasm_State, ptr %14, i32 0, i32 6
  store ptr %13, ptr %15, align 8, !tbaa !31
  br label %16

16:                                               ; preds = %3
  call void @llvm.lifetime.start.p0(i64 8, ptr %8) #12
  %17 = load ptr, ptr %7, align 8, !tbaa !23
  %18 = getelementptr inbounds nuw %struct.dasm_State, ptr %17, i32 0, i32 3
  %19 = load i64, ptr %18, align 8, !tbaa !28
  store i64 %19, ptr %8, align 8, !tbaa !11
  call void @llvm.lifetime.start.p0(i64 8, ptr %9) #12
  %20 = load i32, ptr %6, align 4, !tbaa !9
  %21 = add i32 10, %20
  %22 = zext i32 %21 to i64
  %23 = mul i64 %22, 4
  store i64 %23, ptr %9, align 8, !tbaa !11
  %24 = load i64, ptr %8, align 8, !tbaa !11
  %25 = load i64, ptr %9, align 8, !tbaa !11
  %26 = icmp ult i64 %24, %25
  br i1 %26, label %27, label %57

27:                                               ; preds = %16
  %28 = load i64, ptr %8, align 8, !tbaa !11
  %29 = icmp ult i64 %28, 16
  br i1 %29, label %30, label %31

30:                                               ; preds = %27
  store i64 16, ptr %8, align 8, !tbaa !11
  br label %31

31:                                               ; preds = %30, %27
  br label %32

32:                                               ; preds = %36, %31
  %33 = load i64, ptr %8, align 8, !tbaa !11
  %34 = load i64, ptr %9, align 8, !tbaa !11
  %35 = icmp ult i64 %33, %34
  br i1 %35, label %36, label %40

36:                                               ; preds = %32
  %37 = load i64, ptr %8, align 8, !tbaa !11
  %38 = load i64, ptr %8, align 8, !tbaa !11
  %39 = add i64 %38, %37
  store i64 %39, ptr %8, align 8, !tbaa !11
  br label %32, !llvm.loop !37

40:                                               ; preds = %32
  %41 = load ptr, ptr %7, align 8, !tbaa !23
  %42 = getelementptr inbounds nuw %struct.dasm_State, ptr %41, i32 0, i32 2
  %43 = load ptr, ptr %42, align 8, !tbaa !27
  %44 = load i64, ptr %8, align 8, !tbaa !11
  %45 = call ptr @realloc(ptr noundef %43, i64 noundef %44) #13
  %46 = load ptr, ptr %7, align 8, !tbaa !23
  %47 = getelementptr inbounds nuw %struct.dasm_State, ptr %46, i32 0, i32 2
  store ptr %45, ptr %47, align 8, !tbaa !27
  %48 = load ptr, ptr %7, align 8, !tbaa !23
  %49 = getelementptr inbounds nuw %struct.dasm_State, ptr %48, i32 0, i32 2
  %50 = load ptr, ptr %49, align 8, !tbaa !27
  %51 = icmp eq ptr %50, null
  br i1 %51, label %52, label %53

52:                                               ; preds = %40
  call void @exit(i32 noundef 1) #14
  unreachable

53:                                               ; preds = %40
  %54 = load i64, ptr %8, align 8, !tbaa !11
  %55 = load ptr, ptr %7, align 8, !tbaa !23
  %56 = getelementptr inbounds nuw %struct.dasm_State, ptr %55, i32 0, i32 3
  store i64 %54, ptr %56, align 8, !tbaa !28
  br label %57

57:                                               ; preds = %53, %16
  call void @llvm.lifetime.end.p0(i64 8, ptr %9) #12
  call void @llvm.lifetime.end.p0(i64 8, ptr %8) #12
  br label %58

58:                                               ; preds = %57
  br label %59

59:                                               ; preds = %58
  call void @llvm.lifetime.end.p0(i64 8, ptr %7) #12
  ret void
}