; Function Attrs: nounwind uwtable
define dso_local void @dasm_setupglobal(ptr noundef readonly captures(none) %0, ptr noundef %1, i32 noundef %2) local_unnamed_addr #5 {
  %4 = load ptr, ptr %0, align 8, !tbaa !4
  %5 = getelementptr inbounds nuw i8, ptr %4, i64 48
  store ptr %1, ptr %5, align 8, !tbaa !28
  %6 = getelementptr inbounds nuw i8, ptr %4, i64 24
  %7 = load i64, ptr %6, align 8, !tbaa !29
  %8 = add i32 %2, 10
  %9 = zext i32 %8 to i64
  %10 = shl nuw nsw i64 %9, 2
  %11 = icmp ult i64 %7, %10
  br i1 %11, label %12, label %23

12:                                               ; preds = %3
  %spec.store.select = tail call i64 @llvm.umax.i64(i64 %7, i64 16)
  br label %13

13:                                               ; preds = %13, %12
  %.0 = phi i64 [ %spec.store.select, %12 ], [ %15, %13 ]
  %14 = icmp ult i64 %.0, %10
  %15 = shl nuw nsw i64 %.0, 1
  br i1 %14, label %13, label %16, !llvm.loop !30

16:                                               ; preds = %13
  %17 = getelementptr inbounds nuw i8, ptr %4, i64 16
  %18 = load ptr, ptr %17, align 8, !tbaa !27
  %19 = tail call ptr @realloc(ptr noundef %18, i64 noundef %.0) #26
  store ptr %19, ptr %17, align 8, !tbaa !27
  %20 = icmp eq ptr %19, null
  br i1 %20, label %21, label %22

21:                                               ; preds = %16
  tail call void @exit(i32 noundef 1) #24
  unreachable

22:                                               ; preds = %16
  store i64 %.0, ptr %6, align 8, !tbaa !29
  br label %23

23:                                               ; preds = %22, %3
  ret void
}